target datalayout = "e-m:e-p270:32:32-p271:32:32-p272:64:64-i64:64-i128:128-f80:128-n8:16:32:64-S128"
target triple = "x86_64-pc-linux-gnu"

%struct.strvec = type { ptr, i64, i64 }
%struct.strbuf = type { i64, i64, ptr }
%struct.child_process = type { %struct.strvec, %struct.strvec, i32, i32, i64, ptr, ptr, i32, i32, i32, ptr, i16, ptr }
%struct.parallel_processes_for_signal = type { ptr, ptr }
%struct.parallel_processes = type { i64, ptr, ptr, i8, i64, %struct.strbuf }
%struct.run_process_parallel_opts = type { ptr, ptr, i64, i8, ptr, ptr, ptr, ptr }
%struct.anon.1 = type { i32, %struct.child_process, %struct.strbuf, ptr }

@pp_for_signal = internal global ptr null, align 8

; Function Attrs: nounwind uwtable
define internal void @kill_children(ptr noundef %0, ptr noundef %1, i32 noundef %2) #0 {
  %4 = alloca ptr, align 8
  %5 = alloca ptr, align 8
  %6 = alloca i32, align 4
  %7 = alloca i64, align 8
  store ptr %0, ptr %4, align 8, !tbaa !129
  store ptr %1, ptr %5, align 8, !tbaa !116
  store i32 %2, ptr %6, align 4, !tbaa !16
  call void @llvm.lifetime.start.p0(i64 8, ptr %7) #13
  store i64 0, ptr %7, align 8, !tbaa !91
  br label %8

8:                                                ; preds = %36, %3
  %9 = load i64, ptr %7, align 8, !tbaa !91
  %10 = load ptr, ptr %5, align 8, !tbaa !116
  %11 = getelementptr inbounds nuw %struct.run_process_parallel_opts, ptr %10, i32 0, i32 2
  %12 = load i64, ptr %11, align 8, !tbaa !121
  %13 = icmp ult i64 %9, %12
  br i1 %13, label %15, label %14

14:                                               ; preds = %8
  call void @llvm.lifetime.end.p0(i64 8, ptr %7) #13
  br label %39

15:                                               ; preds = %8
  %16 = load ptr, ptr %4, align 8, !tbaa !129
  %17 = getelementptr inbounds nuw %struct.parallel_processes, ptr %16, i32 0, i32 1
  %18 = load ptr, ptr %17, align 8, !tbaa !125
  %19 = load i64, ptr %7, align 8, !tbaa !91
  %20 = getelementptr inbounds nuw %struct.anon.1, ptr %18, i64 %19
  %21 = getelementptr inbounds nuw %struct.anon.1, ptr %20, i32 0, i32 0
  %22 = load i32, ptr %21, align 8, !tbaa !126
  %23 = icmp eq i32 %22, 1
  br i1 %23, label %24, label %35

24:                                               ; preds = %15
  %25 = load ptr, ptr %4, align 8, !tbaa !129
  %26 = getelementptr inbounds nuw %struct.parallel_processes, ptr %25, i32 0, i32 1
  %27 = load ptr, ptr %26, align 8, !tbaa !125
  %28 = load i64, ptr %7, align 8, !tbaa !91
  %29 = getelementptr inbounds nuw %struct.anon.1, ptr %27, i64 %28
  %30 = getelementptr inbounds nuw %struct.anon.1, ptr %29, i32 0, i32 1
  %31 = getelementptr inbounds nuw %struct.child_process, ptr %30, i32 0, i32 2
  %32 = load i32, ptr %31, align 8, !tbaa !148
  %33 = load i32, ptr %6, align 4, !tbaa !16
  %34 = call i32 @kill(i32 noundef %32, i32 noundef %33) #13
  br label %35

35:                                               ; preds = %24, %15
  br label %36

36:                                               ; preds = %35
  %37 = load i64, ptr %7, align 8, !tbaa !91
  %38 = add i64 %37, 1
  store i64 %38, ptr %7, align 8, !tbaa !91
  br label %8, !llvm.loop !149

39:                                               ; preds = %14
  ret void
}

; Function Attrs: nounwind uwtable
define internal void @kill_children_signal(ptr noundef %0, i32 noundef %1) #0 {
  %3 = alloca ptr, align 8
  %4 = alloca i32, align 4
  store ptr %0, ptr %3, align 8, !tbaa !131
  store i32 %1, ptr %4, align 4, !tbaa !16
  %5 = load ptr, ptr %3, align 8, !tbaa !131
  %6 = getelementptr inbounds nuw %struct.parallel_processes_for_signal, ptr %5, i32 0, i32 1
  %7 = load ptr, ptr %6, align 8, !tbaa !140
  %8 = load ptr, ptr %3, align 8, !tbaa !131
  %9 = getelementptr inbounds nuw %struct.parallel_processes_for_signal, ptr %8, i32 0, i32 0
  %10 = load ptr, ptr %9, align 8, !tbaa !142
  %11 = load i32, ptr %4, align 4, !tbaa !16
  call void @kill_children(ptr noundef %7, ptr noundef %10, i32 noundef %11)
  ret void
}

; Function Attrs: nounwind uwtable
define internal void @handle_children_on_signal(i32 noundef %0) #0 {
  %2 = alloca i32, align 4
  store i32 %0, ptr %2, align 4, !tbaa !16
  %3 = load ptr, ptr @pp_for_signal, align 8, !tbaa !131
  %4 = load i32, ptr %2, align 4, !tbaa !16
  call void @kill_children_signal(ptr noundef %3, i32 noundef %4)
  %5 = load i32, ptr %2, align 4, !tbaa !16
  %6 = call i32 @sigchain_pop(i32 noundef %5)
  %7 = load i32, ptr %2, align 4, !tbaa !16
  %8 = call i32 @raise(i32 noundef %7) #13
  ret void
}