; Function Attrs: nounwind uwtable
define internal void @handle_children_on_signal(i32 noundef %0) #3 {
  %2 = load ptr, ptr @pp_for_signal, align 8, !tbaa !121
  %.val = load ptr, ptr %2, align 8, !tbaa !120
  %3 = getelementptr inbounds nuw i8, ptr %.val, i64 16
  %4 = load i64, ptr %3, align 8, !tbaa !110
  %.not.i.i = icmp eq i64 %4, 0
  br i1 %.not.i.i, label %kill_children_signal.exit, label %.lr.ph.i.i

.lr.ph.i.i:                                       ; preds = %1
  %5 = getelementptr i8, ptr %2, i64 8
  %.val3 = load ptr, ptr %5, align 8, !tbaa !116
  %6 = getelementptr inbounds nuw i8, ptr %.val3, i64 8
  br label %7

7:                                                ; preds = %17, %.lr.ph.i.i
  %8 = phi i64 [ %4, %.lr.ph.i.i ], [ %18, %17 ]
  %.07.i.i = phi i64 [ 0, %.lr.ph.i.i ], [ %19, %17 ]
  %9 = load ptr, ptr %6, align 8, !tbaa !112
  %10 = getelementptr inbounds nuw %struct.anon.1, ptr %9, i64 %.07.i.i
  %11 = load i32, ptr %10, align 8, !tbaa !124
  %12 = icmp eq i32 %11, 1
  br i1 %12, label %13, label %17

13:                                               ; preds = %7
  %14 = getelementptr inbounds nuw i8, ptr %10, i64 56
  %15 = load i32, ptr %14, align 8, !tbaa !131
  %16 = tail call i32 @kill(i32 noundef %15, i32 noundef %0) #21
  %.pre.i.i = load i64, ptr %3, align 8, !tbaa !110
  br label %17

17:                                               ; preds = %13, %7
  %18 = phi i64 [ %8, %7 ], [ %.pre.i.i, %13 ]
  %19 = add nuw i64 %.07.i.i, 1
  %20 = icmp ult i64 %19, %18
  br i1 %20, label %7, label %kill_children_signal.exit, !llvm.loop !132

kill_children_signal.exit:                        ; preds = %17, %1
  %21 = tail call i32 @sigchain_pop(i32 noundef %0) #21
  %22 = tail call i32 @raise(i32 noundef %0) #21
  ret void
}